target datalayout = "e-m:e-p270:32:32-p271:32:32-p272:64:64-i64:64-i128:128-f80:128-n8:16:32:64-S128"
target triple = "x86_64-pc-linux-gnu"

%struct.poly1305_data_st = type { ptr, i32, %struct.poly1305_context }
%struct.poly1305_context = type { [24 x double], [4 x i32], [16 x i8], i64, %struct.anon }
%struct.anon = type { ptr, ptr }
%struct.ossl_param_st = type { ptr, i32, ptr, i64, i64 }

@.str = private unnamed_addr constant [58 x i8] c"../openssl/providers/implementations/macs/poly1305_prov.c\00", align 1
@__func__.poly1305_setkey = private unnamed_addr constant [16 x i8] c"poly1305_setkey\00", align 1
@.str.3 = private unnamed_addr constant [4 x i8] c"key\00", align 1

; Function Attrs: nounwind uwtable
define internal i32 @poly1305_setkey(ptr noundef %0, ptr noundef %1, i64 noundef %2) #0 {
  %4 = alloca i32, align 4
  %5 = alloca ptr, align 8
  %6 = alloca ptr, align 8
  %7 = alloca i64, align 8
  store ptr %0, ptr %5, align 8, !tbaa !7
  store ptr %1, ptr %6, align 8, !tbaa !19
  store i64 %2, ptr %7, align 8, !tbaa !18
  %8 = load i64, ptr %7, align 8, !tbaa !18
  %9 = icmp ne i64 %8, 32
  br i1 %9, label %10, label %11

10:                                               ; preds = %3
  call void @ERR_new()
  call void @ERR_set_debug(ptr noundef @.str, i32 noundef 85, ptr noundef @__func__.poly1305_setkey)
  call void (i32, i32, ptr, ...) @ERR_set_error(i32 noundef 57, i32 noundef 105, ptr noundef null)
  store i32 0, ptr %4, align 4
  br label %17

11:                                               ; preds = %3
  %12 = load ptr, ptr %5, align 8, !tbaa !7
  %13 = getelementptr inbounds nuw %struct.poly1305_data_st, ptr %12, i32 0, i32 2
  %14 = load ptr, ptr %6, align 8, !tbaa !19
  call void @Poly1305_Init(ptr noundef %13, ptr noundef %14)
  %15 = load ptr, ptr %5, align 8, !tbaa !7
  %16 = getelementptr inbounds nuw %struct.poly1305_data_st, ptr %15, i32 0, i32 1
  store i32 0, ptr %16, align 8, !tbaa !23
  store i32 1, ptr %4, align 4
  br label %17

17:                                               ; preds = %11, %10
  %18 = load i32, ptr %4, align 4
  ret i32 %18
}

; Function Attrs: nounwind uwtable
define internal i32 @poly1305_set_ctx_params(ptr noundef %0, ptr noundef %1) #0 {
  %3 = alloca i32, align 4
  %4 = alloca ptr, align 8
  %5 = alloca ptr, align 8
  %6 = alloca ptr, align 8
  %7 = alloca ptr, align 8
  %8 = alloca i32, align 4
  store ptr %0, ptr %4, align 8, !tbaa !3
  store ptr %1, ptr %5, align 8, !tbaa !21
  call void @llvm.lifetime.start.p0(i64 8, ptr %6) #4
  %9 = load ptr, ptr %4, align 8, !tbaa !3
  store ptr %9, ptr %6, align 8, !tbaa !7
  call void @llvm.lifetime.start.p0(i64 8, ptr %7) #4
  %10 = load ptr, ptr %5, align 8, !tbaa !21
  %11 = call ptr @OSSL_PARAM_locate_const(ptr noundef %10, ptr noundef @.str.3)
  store ptr %11, ptr %7, align 8, !tbaa !21
  %12 = icmp ne ptr %11, null
  br i1 %12, label %13, label %24

13:                                               ; preds = %2
  %14 = load ptr, ptr %6, align 8, !tbaa !7
  %15 = load ptr, ptr %7, align 8, !tbaa !21
  %16 = getelementptr inbounds nuw %struct.ossl_param_st, ptr %15, i32 0, i32 2
  %17 = load ptr, ptr %16, align 8, !tbaa !26
  %18 = load ptr, ptr %7, align 8, !tbaa !21
  %19 = getelementptr inbounds nuw %struct.ossl_param_st, ptr %18, i32 0, i32 3
  %20 = load i64, ptr %19, align 8, !tbaa !28
  %21 = call i32 @poly1305_setkey(ptr noundef %14, ptr noundef %17, i64 noundef %20)
  %22 = icmp ne i32 %21, 0
  br i1 %22, label %24, label %23

23:                                               ; preds = %13
  store i32 0, ptr %3, align 4
  store i32 1, ptr %8, align 4
  br label %25

24:                                               ; preds = %13, %2
  store i32 1, ptr %3, align 4
  store i32 1, ptr %8, align 4
  br label %25

25:                                               ; preds = %24, %23
  call void @llvm.lifetime.end.p0(i64 8, ptr %7) #4
  call void @llvm.lifetime.end.p0(i64 8, ptr %6) #4
  %26 = load i32, ptr %3, align 4
  ret i32 %26
}

; Function Attrs: nounwind uwtable
define internal i32 @poly1305_init(ptr noundef %0, ptr noundef %1, i64 noundef %2, ptr noundef %3) #0 {
  %5 = alloca i32, align 4
  %6 = alloca ptr, align 8
  %7 = alloca ptr, align 8
  %8 = alloca i64, align 8
  %9 = alloca ptr, align 8
  %10 = alloca ptr, align 8
  %11 = alloca i32, align 4
  store ptr %0, ptr %6, align 8, !tbaa !3
  store ptr %1, ptr %7, align 8, !tbaa !19
  store i64 %2, ptr %8, align 8, !tbaa !18
  store ptr %3, ptr %9, align 8, !tbaa !21
  call void @llvm.lifetime.start.p0(i64 8, ptr %10) #4
  %12 = load ptr, ptr %6, align 8, !tbaa !3
  store ptr %12, ptr %10, align 8, !tbaa !7
  %13 = call i32 @ossl_prov_is_running()
  %14 = icmp ne i32 %13, 0
  br i1 %14, label %15, label %20

15:                                               ; preds = %4
  %16 = load ptr, ptr %10, align 8, !tbaa !7
  %17 = load ptr, ptr %9, align 8, !tbaa !21
  %18 = call i32 @poly1305_set_ctx_params(ptr noundef %16, ptr noundef %17)
  %19 = icmp ne i32 %18, 0
  br i1 %19, label %21, label %20

20:                                               ; preds = %15, %4
  store i32 0, ptr %5, align 4
  store i32 1, ptr %11, align 4
  br label %35

21:                                               ; preds = %15
  %22 = load ptr, ptr %7, align 8, !tbaa !19
  %23 = icmp ne ptr %22, null
  br i1 %23, label %24, label %29

24:                                               ; preds = %21
  %25 = load ptr, ptr %10, align 8, !tbaa !7
  %26 = load ptr, ptr %7, align 8, !tbaa !19
  %27 = load i64, ptr %8, align 8, !tbaa !18
  %28 = call i32 @poly1305_setkey(ptr noundef %25, ptr noundef %26, i64 noundef %27)
  store i32 %28, ptr %5, align 4
  store i32 1, ptr %11, align 4
  br label %35

29:                                               ; preds = %21
  %30 = load ptr, ptr %10, align 8, !tbaa !7
  %31 = getelementptr inbounds nuw %struct.poly1305_data_st, ptr %30, i32 0, i32 1
  %32 = load i32, ptr %31, align 8, !tbaa !23
  %33 = icmp eq i32 %32, 0
  %34 = zext i1 %33 to i32
  store i32 %34, ptr %5, align 4
  store i32 1, ptr %11, align 4
  br label %35

35:                                               ; preds = %29, %24, %20
  call void @llvm.lifetime.end.p0(i64 8, ptr %10) #4
  %36 = load i32, ptr %5, align 4
  ret i32 %36
}