; Function Attrs: nounwind uwtable
define internal range(i32 0, 2) i32 @poly1305_init(ptr noundef %0, ptr noundef %1, i64 noundef %2, ptr noundef %3) #0 {
  %5 = tail call i32 @ossl_prov_is_running() #4
  %.not = icmp eq i32 %5, 0
  br i1 %.not, label %poly1305_setkey.exit, label %6

6:                                                ; preds = %4
  %7 = tail call ptr @OSSL_PARAM_locate_const(ptr noundef %3, ptr noundef nonnull @.str.3) #4
  %.not.i = icmp eq ptr %7, null
  br i1 %.not.i, label %15, label %8

8:                                                ; preds = %6
  %9 = getelementptr inbounds nuw i8, ptr %7, i64 24
  %10 = load i64, ptr %9, align 8, !tbaa !17
  %.not.i.i = icmp eq i64 %10, 32
  br i1 %.not.i.i, label %poly1305_setkey.exit.i, label %poly1305_set_ctx_params.exit

poly1305_setkey.exit.i:                           ; preds = %8
  %11 = getelementptr inbounds nuw i8, ptr %7, i64 16
  %12 = load ptr, ptr %11, align 8, !tbaa !20
  %13 = getelementptr inbounds nuw i8, ptr %0, i64 16
  tail call void @Poly1305_Init(ptr noundef nonnull %13, ptr noundef %12) #4
  %14 = getelementptr inbounds nuw i8, ptr %0, i64 8
  store i32 0, ptr %14, align 8, !tbaa !21
  br label %15

poly1305_set_ctx_params.exit:                     ; preds = %8
  tail call void @ERR_new() #4
  tail call void @ERR_set_debug(ptr noundef nonnull @.str, i32 noundef 85, ptr noundef nonnull @__func__.poly1305_setkey) #4
  tail call void (i32, i32, ptr, ...) @ERR_set_error(i32 noundef 57, i32 noundef 105, ptr noundef null) #4
  br label %poly1305_setkey.exit

15:                                               ; preds = %poly1305_setkey.exit.i, %6
  %.not10 = icmp eq ptr %1, null
  br i1 %.not10, label %21, label %16

16:                                               ; preds = %15
  %.not.i11 = icmp eq i64 %2, 32
  br i1 %.not.i11, label %18, label %17

17:                                               ; preds = %16
  tail call void @ERR_new() #4
  tail call void @ERR_set_debug(ptr noundef nonnull @.str, i32 noundef 85, ptr noundef nonnull @__func__.poly1305_setkey) #4
  tail call void (i32, i32, ptr, ...) @ERR_set_error(i32 noundef 57, i32 noundef 105, ptr noundef null) #4
  br label %poly1305_setkey.exit

18:                                               ; preds = %16
  %19 = getelementptr inbounds nuw i8, ptr %0, i64 16
  tail call void @Poly1305_Init(ptr noundef nonnull %19, ptr noundef nonnull %1) #4
  %20 = getelementptr inbounds nuw i8, ptr %0, i64 8
  store i32 0, ptr %20, align 8, !tbaa !21
  br label %poly1305_setkey.exit

21:                                               ; preds = %15
  %22 = getelementptr inbounds nuw i8, ptr %0, i64 8
  %23 = load i32, ptr %22, align 8, !tbaa !21
  %24 = icmp eq i32 %23, 0
  %25 = zext i1 %24 to i32
  br label %poly1305_setkey.exit

poly1305_setkey.exit:                             ; preds = %18, %17, %poly1305_set_ctx_params.exit, %4, %21
  %.0 = phi i32 [ %25, %21 ], [ 0, %poly1305_set_ctx_params.exit ], [ 0, %4 ], [ 0, %17 ], [ 1, %18 ]
  ret i32 %.0
}